target datalayout = "e-m:e-p270:32:32-p271:32:32-p272:64:64-i64:64-i128:128-f80:128-n8:16:32:64-S128"
target triple = "x86_64-pc-linux-gnu"

%struct.grpc_context_info_t = type { i8, i32, ptr, ptr, ptr }
%struct._packet_info = type { ptr, ptr, i32, i32, %struct.nstime_t, %struct.nstime_t, %struct.nstime_t, i8, ptr, ptr, ptr, ptr, %struct._address, %struct._address, %struct._address, %struct._address, %struct._address, %struct._address, i32, ptr, i8, [3 x i8], %struct.anon, i32, i32, i32, i32, ptr, i8, ptr, ptr, i16, i16, i32, i32, i16, i32, i32, ptr, ptr, ptr, i8, i8, i16, i16, i16, i32, i16, i16, ptr, ptr, ptr, ptr, ptr, i32, i32 }
%struct.nstime_t = type { i64, i32 }
%struct._address = type { i32, i32, ptr, ptr }
%struct.anon = type { i8, [3 x i8] }
%struct.media_content_info_t = type { i32, ptr, ptr, ptr }
%struct._http_req_res_t = type { i32, i32, i32, %struct.nstime_t, i32, ptr, ptr, ptr, ptr, i8, i8, ptr }

@.str.42 = private unnamed_addr constant [5 x i8] c"http\00", align 1
@proto_http = internal global i32 0, align 4
@.str.50 = private unnamed_addr constant [6 x i8] c"http2\00", align 1
@.str.51 = private unnamed_addr constant [6 x i8] c":path\00", align 1
@.str.52 = private unnamed_addr constant [13 x i8] c"content-type\00", align 1
@.str.53 = private unnamed_addr constant [14 x i8] c"grpc-encoding\00", align 1
@.str.54 = private unnamed_addr constant [34 x i8] c"%s:%u: failed assertion \22%s\22 (%s)\00", align 1
@.str.55 = private unnamed_addr constant [30 x i8] c"epan/dissectors/packet-grpc.c\00", align 1
@.str.56 = private unnamed_addr constant [29 x i8] c"curr_req_res && content_info\00", align 1
@.str.57 = private unnamed_addr constant [73 x i8] c"Unexpected error: HTTP request/reply or HTTP message info not available.\00", align 1
@.str.58 = private unnamed_addr constant [55 x i8] c"%s:%u: failed assertion \22DISSECTOR_ASSERT_NOT_REACHED\22\00", align 1

; Function Attrs: null_pointer_is_valid sspstrong uwtable
define internal ptr @get_grpc_context(ptr noundef %0, ptr noundef %1) #0 {
  %3 = alloca ptr, align 8
  %4 = alloca ptr, align 8
  %5 = alloca ptr, align 8
  %6 = alloca ptr, align 8
  store ptr %0, ptr %3, align 8
  store ptr %1, ptr %4, align 8
  call void @llvm.lifetime.start.p0(i64 8, ptr %5) #8
  call void @llvm.lifetime.start.p0(i64 8, ptr %6) #8
  %7 = load ptr, ptr %3, align 8
  %8 = getelementptr inbounds nuw %struct._packet_info, ptr %7, i32 0, i32 51
  %9 = load ptr, ptr %8, align 8
  %10 = call noalias ptr @wmem_alloc0(ptr noundef %9, i64 noundef 32) #9
  store ptr %10, ptr %6, align 8
  %11 = load ptr, ptr %3, align 8
  %12 = getelementptr inbounds nuw %struct._packet_info, ptr %11, i32 0, i32 39
  %13 = load ptr, ptr %12, align 8
  %14 = call zeroext i1 @proto_is_frame_protocol(ptr noundef %13, ptr noundef @.str.50)
  br i1 %14, label %15, label %45

15:                                               ; preds = %2
  %16 = load ptr, ptr %3, align 8
  %17 = call ptr @http2_get_header_value(ptr noundef %16, ptr noundef @.str.51, i1 noundef zeroext false)
  %18 = load ptr, ptr %6, align 8
  %19 = getelementptr inbounds nuw %struct.grpc_context_info_t, ptr %18, i32 0, i32 2
  store ptr %17, ptr %19, align 8
  %20 = load ptr, ptr %6, align 8
  %21 = getelementptr inbounds nuw %struct.grpc_context_info_t, ptr %20, i32 0, i32 2
  %22 = load ptr, ptr %21, align 8
  %23 = icmp ne ptr %22, null
  %24 = load ptr, ptr %6, align 8
  %25 = getelementptr inbounds nuw %struct.grpc_context_info_t, ptr %24, i32 0, i32 0
  %26 = zext i1 %23 to i8
  store i8 %26, ptr %25, align 8
  %27 = load ptr, ptr %6, align 8
  %28 = getelementptr inbounds nuw %struct.grpc_context_info_t, ptr %27, i32 0, i32 2
  %29 = load ptr, ptr %28, align 8
  %30 = icmp eq ptr %29, null
  br i1 %30, label %31, label %36

31:                                               ; preds = %15
  %32 = load ptr, ptr %3, align 8
  %33 = call ptr @http2_get_header_value(ptr noundef %32, ptr noundef @.str.51, i1 noundef zeroext true)
  %34 = load ptr, ptr %6, align 8
  %35 = getelementptr inbounds nuw %struct.grpc_context_info_t, ptr %34, i32 0, i32 2
  store ptr %33, ptr %35, align 8
  br label %36

36:                                               ; preds = %31, %15
  %37 = load ptr, ptr %3, align 8
  %38 = call ptr @http2_get_header_value(ptr noundef %37, ptr noundef @.str.52, i1 noundef zeroext false)
  %39 = load ptr, ptr %6, align 8
  %40 = getelementptr inbounds nuw %struct.grpc_context_info_t, ptr %39, i32 0, i32 3
  store ptr %38, ptr %40, align 8
  %41 = load ptr, ptr %3, align 8
  %42 = call ptr @http2_get_header_value(ptr noundef %41, ptr noundef @.str.53, i1 noundef zeroext false)
  %43 = load ptr, ptr %6, align 8
  %44 = getelementptr inbounds nuw %struct.grpc_context_info_t, ptr %43, i32 0, i32 4
  store ptr %42, ptr %44, align 8
  br label %95

45:                                               ; preds = %2
  %46 = load ptr, ptr %3, align 8
  %47 = getelementptr inbounds nuw %struct._packet_info, ptr %46, i32 0, i32 39
  %48 = load ptr, ptr %47, align 8
  %49 = call zeroext i1 @proto_is_frame_protocol(ptr noundef %48, ptr noundef @.str.42)
  br i1 %49, label %50, label %93

50:                                               ; preds = %45
  %51 = call ptr @wmem_file_scope()
  %52 = load ptr, ptr %3, align 8
  %53 = load i32, ptr @proto_http, align 4
  %54 = call ptr @p_get_proto_data(ptr noundef %51, ptr noundef %52, i32 noundef %53, i32 noundef 0)
  store ptr %54, ptr %5, align 8
  %55 = load ptr, ptr %5, align 8
  %56 = icmp ne ptr %55, null
  br i1 %56, label %57, label %61

57:                                               ; preds = %50
  %58 = load ptr, ptr %4, align 8
  %59 = icmp ne ptr %58, null
  br i1 %59, label %60, label %61

60:                                               ; preds = %57
  br label %63

61:                                               ; preds = %57, %50
  call void (ptr, ...) @proto_report_dissector_bug(ptr noundef @.str.54, ptr noundef @.str.55, i32 noundef 406, ptr noundef @.str.56, ptr noundef @.str.57) #10
  unreachable

62:                                               ; No predecessors!
  br label %63

63:                                               ; preds = %62, %60
  %64 = load ptr, ptr %4, align 8
  %65 = getelementptr inbounds nuw %struct.media_content_info_t, ptr %64, i32 0, i32 0
  %66 = load i32, ptr %65, align 8
  %67 = icmp eq i32 %66, 0
  %68 = load ptr, ptr %6, align 8
  %69 = getelementptr inbounds nuw %struct.grpc_context_info_t, ptr %68, i32 0, i32 0
  %70 = zext i1 %67 to i8
  store i8 %70, ptr %69, align 8
  %71 = load ptr, ptr %5, align 8
  %72 = getelementptr inbounds nuw %struct._http_req_res_t, ptr %71, i32 0, i32 7
  %73 = load ptr, ptr %72, align 8
  %74 = load ptr, ptr %6, align 8
  %75 = getelementptr inbounds nuw %struct.grpc_context_info_t, ptr %74, i32 0, i32 2
  store ptr %73, ptr %75, align 8
  %76 = load ptr, ptr %3, align 8
  %77 = getelementptr inbounds nuw %struct._packet_info, ptr %76, i32 0, i32 27
  %78 = load ptr, ptr %77, align 8
  %79 = load ptr, ptr %6, align 8
  %80 = getelementptr inbounds nuw %struct.grpc_context_info_t, ptr %79, i32 0, i32 3
  store ptr %78, ptr %80, align 8
  %81 = load ptr, ptr %4, align 8
  %82 = getelementptr inbounds nuw %struct.media_content_info_t, ptr %81, i32 0, i32 3
  %83 = load ptr, ptr %82, align 8
  %84 = icmp ne ptr %83, null
  br i1 %84, label %85, label %92

85:                                               ; preds = %63
  %86 = load ptr, ptr %4, align 8
  %87 = getelementptr inbounds nuw %struct.media_content_info_t, ptr %86, i32 0, i32 3
  %88 = load ptr, ptr %87, align 8
  %89 = call ptr @wmem_map_lookup(ptr noundef %88, ptr noundef @.str.53)
  %90 = load ptr, ptr %6, align 8
  %91 = getelementptr inbounds nuw %struct.grpc_context_info_t, ptr %90, i32 0, i32 4
  store ptr %89, ptr %91, align 8
  br label %92

92:                                               ; preds = %85, %63
  br label %94

93:                                               ; preds = %45
  call void (ptr, ...) @proto_report_dissector_bug(ptr noundef @.str.58, ptr noundef @.str.55, i32 noundef 416) #10
  unreachable

94:                                               ; preds = %92
  br label %95

95:                                               ; preds = %94, %36
  %96 = load ptr, ptr %6, align 8
  call void @llvm.lifetime.end.p0(i64 8, ptr %6) #8
  call void @llvm.lifetime.end.p0(i64 8, ptr %5) #8
  ret ptr %96
}