; Function Attrs: null_pointer_is_valid sspstrong uwtable
define internal fastcc noalias noundef ptr @get_grpc_context(ptr noundef %0, ptr noundef readonly captures(address_is_null) %1) unnamed_addr #0 {
  %3 = getelementptr inbounds nuw i8, ptr %0, i64 408
  %4 = load ptr, ptr %3, align 8
  %5 = tail call noalias dereferenceable_or_null(32) ptr @wmem_alloc0(ptr noundef %4, i64 noundef 32) #6
  %6 = getelementptr inbounds nuw i8, ptr %0, i64 360
  %7 = load ptr, ptr %6, align 8
  %8 = tail call zeroext i1 @proto_is_frame_protocol(ptr noundef %7, ptr noundef nonnull @.str.50)
  br i1 %8, label %9, label %21

9:                                                ; preds = %2
  %10 = tail call ptr @http2_get_header_value(ptr noundef %0, ptr noundef nonnull @.str.51, i1 noundef zeroext false)
  %11 = getelementptr inbounds nuw i8, ptr %5, i64 8
  store ptr %10, ptr %11, align 8
  %12 = icmp ne ptr %10, null
  %13 = zext i1 %12 to i8
  store i8 %13, ptr %5, align 8
  %14 = icmp eq ptr %10, null
  br i1 %14, label %15, label %17

15:                                               ; preds = %9
  %16 = tail call ptr @http2_get_header_value(ptr noundef %0, ptr noundef nonnull @.str.51, i1 noundef zeroext true)
  store ptr %16, ptr %11, align 8
  br label %17

17:                                               ; preds = %15, %9
  %18 = tail call ptr @http2_get_header_value(ptr noundef %0, ptr noundef nonnull @.str.52, i1 noundef zeroext false)
  %19 = getelementptr inbounds nuw i8, ptr %5, i64 16
  store ptr %18, ptr %19, align 8
  %20 = tail call ptr @http2_get_header_value(ptr noundef %0, ptr noundef nonnull @.str.53, i1 noundef zeroext false)
  br label %.sink.split

21:                                               ; preds = %2
  %22 = load ptr, ptr %6, align 8
  %23 = tail call zeroext i1 @proto_is_frame_protocol(ptr noundef %22, ptr noundef nonnull @.str.42)
  br i1 %23, label %24, label %45

24:                                               ; preds = %21
  %25 = tail call ptr @wmem_file_scope()
  %26 = load i32, ptr @proto_http, align 4
  %27 = tail call ptr @p_get_proto_data(ptr noundef %25, ptr noundef %0, i32 noundef %26, i32 noundef 0)
  %28 = icmp ne ptr %27, null
  %29 = icmp ne ptr %1, null
  %or.cond = and i1 %29, %28
  br i1 %or.cond, label %31, label %30

30:                                               ; preds = %24
  tail call void (ptr, ...) @proto_report_dissector_bug(ptr noundef nonnull @.str.54, ptr noundef nonnull @.str.55, i32 noundef 406, ptr noundef nonnull @.str.56, ptr noundef nonnull @.str.57) #7
  unreachable

31:                                               ; preds = %24
  %32 = load i32, ptr %1, align 8
  %33 = icmp eq i32 %32, 0
  %34 = zext i1 %33 to i8
  store i8 %34, ptr %5, align 8
  %35 = getelementptr inbounds nuw i8, ptr %27, i64 56
  %36 = load ptr, ptr %35, align 8
  %37 = getelementptr inbounds nuw i8, ptr %5, i64 8
  store ptr %36, ptr %37, align 8
  %38 = getelementptr inbounds nuw i8, ptr %0, i64 296
  %39 = load ptr, ptr %38, align 8
  %40 = getelementptr inbounds nuw i8, ptr %5, i64 16
  store ptr %39, ptr %40, align 8
  %41 = getelementptr inbounds nuw i8, ptr %1, i64 24
  %42 = load ptr, ptr %41, align 8
  %.not = icmp eq ptr %42, null
  br i1 %.not, label %47, label %43

43:                                               ; preds = %31
  %44 = tail call ptr @wmem_map_lookup(ptr noundef nonnull %42, ptr noundef nonnull @.str.53)
  br label %.sink.split

45:                                               ; preds = %21
  tail call void (ptr, ...) @proto_report_dissector_bug(ptr noundef nonnull @.str.58, ptr noundef nonnull @.str.55, i32 noundef 416) #7
  unreachable

.sink.split:                                      ; preds = %17, %43
  %.sink = phi ptr [ %44, %43 ], [ %20, %17 ]
  %46 = getelementptr inbounds nuw i8, ptr %5, i64 24
  store ptr %.sink, ptr %46, align 8
  br label %47

47:                                               ; preds = %.sink.split, %31
  ret ptr %5
}